; Function Attrs: nounwind uwtable
define internal i32 @lsarpc_dissect_lsa_LookupNames3_request(ptr noundef %0, i32 noundef %1, ptr noundef %2, ptr noundef %3, ptr noundef initializes((80, 88)) %4, ptr noundef %5) #0 {
  %7 = alloca i32, align 4
  %8 = alloca i32, align 4
  %9 = alloca i32, align 4
  %10 = getelementptr inbounds nuw i8, ptr %4, i64 80
  store ptr @.str.1073, ptr %10, align 8
  %11 = load i32, ptr @hf_lsarpc_lsa_LookupNames3_handle, align 4
  %12 = tail call i32 @dissect_ndr_toplevel_pointer(ptr noundef %0, i32 noundef %1, ptr noundef %2, ptr noundef %3, ptr noundef %4, ptr noundef %5, ptr noundef nonnull @lsarpc_dissect_element_lsa_LookupNames3_handle_, i32 noundef 1, ptr noundef nonnull @.str.1139, i32 noundef %11) #5
  %13 = tail call i32 @dissect_deferred_pointers(ptr noundef %2, ptr noundef %0, i32 noundef %12, ptr noundef %4, ptr noundef %5) #5
  %14 = load i32, ptr @hf_lsarpc_lsa_LookupNames3_num_names, align 4
  %15 = tail call i32 @PIDL_dissect_uint32(ptr noundef %0, i32 noundef %13, ptr noundef %2, ptr noundef %3, ptr noundef %4, ptr noundef %5, i32 noundef %14, i32 noundef 0) #5
  %16 = tail call i32 @dissect_deferred_pointers(ptr noundef %2, ptr noundef %0, i32 noundef %15, ptr noundef %4, ptr noundef %5) #5
  %17 = load i32, ptr @hf_lsarpc_names, align 4
  %18 = tail call i32 @dissect_ndr_toplevel_pointer(ptr noundef %0, i32 noundef %16, ptr noundef %2, ptr noundef %3, ptr noundef %4, ptr noundef %5, ptr noundef nonnull @lsarpc_dissect_element_lsa_LookupNames3_names_X, i32 noundef 1, ptr noundef nonnull @.str.1155, i32 noundef %17) #5
  %19 = tail call i32 @dissect_deferred_pointers(ptr noundef %2, ptr noundef %0, i32 noundef %18, ptr noundef %4, ptr noundef %5) #5
  %20 = load i32, ptr @hf_lsarpc_lsa_LookupNames3_sids, align 4
  %21 = tail call i32 @dissect_ndr_toplevel_pointer(ptr noundef %0, i32 noundef %19, ptr noundef %2, ptr noundef %3, ptr noundef %4, ptr noundef %5, ptr noundef nonnull @lsarpc_dissect_element_lsa_LookupNames3_sids_, i32 noundef 1, ptr noundef nonnull @.str.1190, i32 noundef %20) #5
  %22 = tail call i32 @dissect_deferred_pointers(ptr noundef %2, ptr noundef %0, i32 noundef %21, ptr noundef %4, ptr noundef %5) #5
  %23 = load i32, ptr @hf_lsarpc_lsa_LookupNames3_level, align 4
  call void @llvm.lifetime.start.p0(i64 4, ptr nonnull %9)
  store i32 0, ptr %9, align 4
  %24 = call i32 @dissect_ndr_uint1632(ptr noundef %0, i32 noundef %22, ptr noundef %2, ptr noundef %3, ptr noundef %4, ptr noundef %5, i32 noundef %23, ptr noundef nonnull %9) #5
  call void @llvm.lifetime.end.p0(i64 4, ptr nonnull %9)
  %25 = call i32 @dissect_deferred_pointers(ptr noundef %2, ptr noundef %0, i32 noundef %24, ptr noundef %4, ptr noundef %5) #5
  %26 = load i32, ptr @hf_lsarpc_lsa_LookupNames3_count, align 4
  %27 = call i32 @dissect_ndr_toplevel_pointer(ptr noundef %0, i32 noundef %25, ptr noundef %2, ptr noundef %3, ptr noundef %4, ptr noundef %5, ptr noundef nonnull @lsarpc_dissect_element_lsa_LookupNames3_count_, i32 noundef 1, ptr noundef nonnull @.str.1157, i32 noundef %26) #5
  %28 = call i32 @dissect_deferred_pointers(ptr noundef %2, ptr noundef %0, i32 noundef %27, ptr noundef %4, ptr noundef %5) #5
  %29 = load i32, ptr @hf_lsarpc_lsa_LookupNames3_lookup_options, align 4
  call void @llvm.lifetime.start.p0(i64 4, ptr nonnull %8)
  store i32 0, ptr %8, align 4
  %30 = call i32 @dissect_ndr_uint32(ptr noundef %0, i32 noundef %28, ptr noundef %2, ptr noundef %3, ptr noundef %4, ptr noundef %5, i32 noundef %29, ptr noundef nonnull %8) #5
  call void @llvm.lifetime.end.p0(i64 4, ptr nonnull %8)
  %31 = call i32 @dissect_deferred_pointers(ptr noundef %2, ptr noundef %0, i32 noundef %30, ptr noundef %4, ptr noundef %5) #5
  %32 = load i32, ptr @hf_lsarpc_lsa_LookupNames3_client_revision, align 4
  call void @llvm.lifetime.start.p0(i64 4, ptr nonnull %7)
  store i32 0, ptr %7, align 4
  %33 = call i32 @dissect_ndr_uint32(ptr noundef %0, i32 noundef %31, ptr noundef %2, ptr noundef %3, ptr noundef %4, ptr noundef %5, i32 noundef %32, ptr noundef nonnull %7) #5
  call void @llvm.lifetime.end.p0(i64 4, ptr nonnull %7)
  %34 = call i32 @dissect_deferred_pointers(ptr noundef %2, ptr noundef %0, i32 noundef %33, ptr noundef %4, ptr noundef %5) #5
  ret i32 %34
}